target datalayout = "e-m:e-p270:32:32-p271:32:32-p272:64:64-i64:64-i128:128-f80:128-n8:16:32:64-S128"
target triple = "x86_64-pc-linux-gnu"

%"class.llvm::SMLoc" = type { ptr }
%"class.std::unique_ptr" = type { %"struct.std::__uniq_ptr_data" }
%"struct.std::__uniq_ptr_data" = type { %"class.std::__uniq_ptr_impl" }
%"class.std::__uniq_ptr_impl" = type { %"class.std::tuple" }
%"class.std::tuple" = type { %"struct.std::_Tuple_impl" }
%"struct.std::_Tuple_impl" = type { %"struct.std::_Head_base.11" }
%"struct.std::_Head_base.11" = type { ptr }
%"class.llvm::SourceMgr" = type { %"class.std::vector", %"class.std::vector.1", ptr, ptr }
%"class.std::vector" = type { %"struct.std::_Vector_base" }
%"struct.std::_Vector_base" = type { %"struct.std::_Vector_base<llvm::SourceMgr::SrcBuffer, std::allocator<llvm::SourceMgr::SrcBuffer>>::_Vector_impl" }
%"struct.std::_Vector_base<llvm::SourceMgr::SrcBuffer, std::allocator<llvm::SourceMgr::SrcBuffer>>::_Vector_impl" = type { %"struct.std::_Vector_base<llvm::SourceMgr::SrcBuffer, std::allocator<llvm::SourceMgr::SrcBuffer>>::_Vector_impl_data" }
%"struct.std::_Vector_base<llvm::SourceMgr::SrcBuffer, std::allocator<llvm::SourceMgr::SrcBuffer>>::_Vector_impl_data" = type { ptr, ptr, ptr }
%"class.std::vector.1" = type { %"struct.std::_Vector_base.2" }
%"struct.std::_Vector_base.2" = type { %"struct.std::_Vector_base<std::__cxx11::basic_string<char>, std::allocator<std::__cxx11::basic_string<char>>>::_Vector_impl" }
%"struct.std::_Vector_base<std::__cxx11::basic_string<char>, std::allocator<std::__cxx11::basic_string<char>>>::_Vector_impl" = type { %"struct.std::_Vector_base<std::__cxx11::basic_string<char>, std::allocator<std::__cxx11::basic_string<char>>>::_Vector_impl_data" }
%"struct.std::_Vector_base<std::__cxx11::basic_string<char>, std::allocator<std::__cxx11::basic_string<char>>>::_Vector_impl_data" = type { ptr, ptr, ptr }
%"struct.llvm::SourceMgr::SrcBuffer" = type { %"class.std::unique_ptr", ptr, %"class.llvm::SMLoc" }
%"class.llvm::MemoryBuffer" = type { ptr, ptr, ptr }

; Function Attrs: mustprogress nounwind uwtable
define linkonce_odr hidden noundef nonnull align 8 dereferenceable(8) ptr @_ZNSt10_Head_baseILm0EPN4llvm12MemoryBufferELb0EE7_M_headERKS3_(ptr noundef nonnull align 8 dereferenceable(8) %0) #0 comdat align 2 {
  %2 = alloca ptr, align 8
  store ptr %0, ptr %2, align 8
  %3 = load ptr, ptr %2, align 8
  %4 = getelementptr inbounds nuw %"struct.std::_Head_base.11", ptr %3, i32 0, i32 0
  ret ptr %4
}

; Function Attrs: mustprogress nounwind uwtable
define linkonce_odr hidden noundef nonnull align 8 dereferenceable(8) ptr @_ZNSt11_Tuple_implILm0EJPN4llvm12MemoryBufferESt14default_deleteIS1_EEE7_M_headERKS5_(ptr noundef nonnull align 8 dereferenceable(8) %0) #0 comdat align 2 {
  %2 = alloca ptr, align 8
  store ptr %0, ptr %2, align 8
  %3 = load ptr, ptr %2, align 8
  %4 = call noundef nonnull align 8 dereferenceable(8) ptr @_ZNSt10_Head_baseILm0EPN4llvm12MemoryBufferELb0EE7_M_headERKS3_(ptr noundef nonnull align 8 dereferenceable(8) %3) #11
  ret ptr %4
}

; Function Attrs: mustprogress nounwind uwtable
define linkonce_odr noundef nonnull align 8 dereferenceable(8) ptr @_ZSt12__get_helperILm0EPN4llvm12MemoryBufferEJSt14default_deleteIS1_EEERKT0_RKSt11_Tuple_implIXT_EJS5_DpT1_EE(ptr noundef nonnull align 8 dereferenceable(8) %0) #0 comdat {
  %2 = alloca ptr, align 8
  store ptr %0, ptr %2, align 8
  %3 = load ptr, ptr %2, align 8
  %4 = call noundef nonnull align 8 dereferenceable(8) ptr @_ZNSt11_Tuple_implILm0EJPN4llvm12MemoryBufferESt14default_deleteIS1_EEE7_M_headERKS5_(ptr noundef nonnull align 8 dereferenceable(8) %3) #11
  ret ptr %4
}

; Function Attrs: mustprogress nounwind uwtable
define linkonce_odr noundef nonnull align 8 dereferenceable(8) ptr @_ZSt3getILm0EJPN4llvm12MemoryBufferESt14default_deleteIS1_EEERKNSt13tuple_elementIXT_ESt5tupleIJDpT0_EEE4typeERKS9_(ptr noundef nonnull align 8 dereferenceable(8) %0) #0 comdat {
  %2 = alloca ptr, align 8
  store ptr %0, ptr %2, align 8
  %3 = load ptr, ptr %2, align 8
  %4 = call noundef nonnull align 8 dereferenceable(8) ptr @_ZSt12__get_helperILm0EPN4llvm12MemoryBufferEJSt14default_deleteIS1_EEERKT0_RKSt11_Tuple_implIXT_EJS5_DpT1_EE(ptr noundef nonnull align 8 dereferenceable(8) %3) #11
  ret ptr %4
}

; Function Attrs: mustprogress nounwind uwtable
define linkonce_odr hidden noundef ptr @_ZNKSt15__uniq_ptr_implIN4llvm12MemoryBufferESt14default_deleteIS1_EE6_M_ptrEv(ptr noundef nonnull align 8 dereferenceable(8) %0) #0 comdat align 2 {
  %2 = alloca ptr, align 8
  store ptr %0, ptr %2, align 8
  %3 = load ptr, ptr %2, align 8
  %4 = getelementptr inbounds nuw %"class.std::__uniq_ptr_impl", ptr %3, i32 0, i32 0
  %5 = call noundef nonnull align 8 dereferenceable(8) ptr @_ZSt3getILm0EJPN4llvm12MemoryBufferESt14default_deleteIS1_EEERKNSt13tuple_elementIXT_ESt5tupleIJDpT0_EEE4typeERKS9_(ptr noundef nonnull align 8 dereferenceable(8) %4) #11
  %6 = load ptr, ptr %5, align 8
  ret ptr %6
}

; Function Attrs: mustprogress nounwind uwtable
define linkonce_odr hidden noundef ptr @_ZNKSt10unique_ptrIN4llvm12MemoryBufferESt14default_deleteIS1_EE3getEv(ptr noundef nonnull align 8 dereferenceable(8) %0) #0 comdat align 2 {
  %2 = alloca ptr, align 8
  store ptr %0, ptr %2, align 8
  %3 = load ptr, ptr %2, align 8
  %4 = getelementptr inbounds nuw %"class.std::unique_ptr", ptr %3, i32 0, i32 0
  %5 = call noundef ptr @_ZNKSt15__uniq_ptr_implIN4llvm12MemoryBufferESt14default_deleteIS1_EE6_M_ptrEv(ptr noundef nonnull align 8 dereferenceable(8) %4) #11
  ret ptr %5
}

; Function Attrs: mustprogress nounwind uwtable
define linkonce_odr hidden noundef ptr @_ZNK4llvm12MemoryBuffer12getBufferEndEv(ptr noundef nonnull align 8 dereferenceable(24) %0) #0 comdat align 2 {
  %2 = alloca ptr, align 8
  store ptr %0, ptr %2, align 8
  %3 = load ptr, ptr %2, align 8
  %4 = getelementptr inbounds nuw %"class.llvm::MemoryBuffer", ptr %3, i32 0, i32 2
  %5 = load ptr, ptr %4, align 8
  ret ptr %5
}

; Function Attrs: mustprogress nounwind uwtable
define linkonce_odr hidden noundef ptr @_ZNK4llvm12MemoryBuffer14getBufferStartEv(ptr noundef nonnull align 8 dereferenceable(24) %0) #0 comdat align 2 {
  %2 = alloca ptr, align 8
  store ptr %0, ptr %2, align 8
  %3 = load ptr, ptr %2, align 8
  %4 = getelementptr inbounds nuw %"class.llvm::MemoryBuffer", ptr %3, i32 0, i32 1
  %5 = load ptr, ptr %4, align 8
  ret ptr %5
}

; Function Attrs: mustprogress nounwind uwtable
define linkonce_odr hidden noundef ptr @_ZNKSt10unique_ptrIN4llvm12MemoryBufferESt14default_deleteIS1_EEptEv(ptr noundef nonnull align 8 dereferenceable(8) %0) #0 comdat align 2 {
  %2 = alloca ptr, align 8
  store ptr %0, ptr %2, align 8
  %3 = load ptr, ptr %2, align 8
  %4 = call noundef ptr @_ZNKSt10unique_ptrIN4llvm12MemoryBufferESt14default_deleteIS1_EE3getEv(ptr noundef nonnull align 8 dereferenceable(8) %3) #11
  ret ptr %4
}

; Function Attrs: mustprogress nounwind uwtable
define linkonce_odr hidden noundef nonnull align 8 dereferenceable(24) ptr @_ZNKSt6vectorIN4llvm9SourceMgr9SrcBufferESaIS2_EEixEm(ptr noundef nonnull align 8 dereferenceable(24) %0, i64 noundef %1) #0 comdat align 2 {
  %3 = alloca ptr, align 8
  %4 = alloca i64, align 8
  store ptr %0, ptr %3, align 8
  store i64 %1, ptr %4, align 8
  %5 = load ptr, ptr %3, align 8
  %6 = getelementptr inbounds nuw %"struct.std::_Vector_base", ptr %5, i32 0, i32 0
  %7 = getelementptr inbounds nuw %"struct.std::_Vector_base<llvm::SourceMgr::SrcBuffer, std::allocator<llvm::SourceMgr::SrcBuffer>>::_Vector_impl_data", ptr %6, i32 0, i32 0
  %8 = load ptr, ptr %7, align 8
  %9 = load i64, ptr %4, align 8
  %10 = getelementptr inbounds %"struct.llvm::SourceMgr::SrcBuffer", ptr %8, i64 %9
  ret ptr %10
}

; Function Attrs: mustprogress nounwind uwtable
define linkonce_odr hidden noundef ptr @_ZNK4llvm5SMLoc10getPointerEv(ptr noundef nonnull align 8 dereferenceable(8) %0) #0 comdat align 2 {
  %2 = alloca ptr, align 8
  store ptr %0, ptr %2, align 8
  %3 = load ptr, ptr %2, align 8
  %4 = getelementptr inbounds nuw %"class.llvm::SMLoc", ptr %3, i32 0, i32 0
  %5 = load ptr, ptr %4, align 8
  ret ptr %5
}

; Function Attrs: mustprogress nounwind uwtable
define linkonce_odr hidden noundef i64 @_ZNKSt6vectorIN4llvm9SourceMgr9SrcBufferESaIS2_EE4sizeEv(ptr noundef nonnull align 8 dereferenceable(24) %0) #0 comdat align 2 {
  %2 = alloca ptr, align 8
  store ptr %0, ptr %2, align 8
  %3 = load ptr, ptr %2, align 8
  %4 = getelementptr inbounds nuw %"struct.std::_Vector_base", ptr %3, i32 0, i32 0
  %5 = getelementptr inbounds nuw %"struct.std::_Vector_base<llvm::SourceMgr::SrcBuffer, std::allocator<llvm::SourceMgr::SrcBuffer>>::_Vector_impl_data", ptr %4, i32 0, i32 1
  %6 = load ptr, ptr %5, align 8
  %7 = getelementptr inbounds nuw %"struct.std::_Vector_base", ptr %3, i32 0, i32 0
  %8 = getelementptr inbounds nuw %"struct.std::_Vector_base<llvm::SourceMgr::SrcBuffer, std::allocator<llvm::SourceMgr::SrcBuffer>>::_Vector_impl_data", ptr %7, i32 0, i32 0
  %9 = load ptr, ptr %8, align 8
  %10 = ptrtoint ptr %6 to i64
  %11 = ptrtoint ptr %9 to i64
  %12 = sub i64 %10, %11
  %13 = sdiv exact i64 %12, 24
  ret i64 %13
}

; Function Attrs: mustprogress nounwind uwtable
define dso_local noundef i32 @_ZNK4llvm9SourceMgr23FindBufferContainingLocENS_5SMLocE(ptr noundef nonnull align 8 dereferenceable(64) %0, ptr %1) #0 align 2 {
  %3 = alloca i32, align 4
  %4 = alloca %"class.llvm::SMLoc", align 8
  %5 = alloca ptr, align 8
  %6 = alloca i32, align 4
  %7 = alloca i32, align 4
  %8 = getelementptr inbounds nuw %"class.llvm::SMLoc", ptr %4, i32 0, i32 0
  store ptr %1, ptr %8, align 8
  store ptr %0, ptr %5, align 8
  %9 = load ptr, ptr %5, align 8
  store i32 0, ptr %6, align 4
  %10 = getelementptr inbounds nuw %"class.llvm::SourceMgr", ptr %9, i32 0, i32 0
  %11 = call noundef i64 @_ZNKSt6vectorIN4llvm9SourceMgr9SrcBufferESaIS2_EE4sizeEv(ptr noundef nonnull align 8 dereferenceable(24) %10) #11
  %12 = trunc i64 %11 to i32
  store i32 %12, ptr %7, align 4
  br label %13

13:                                               ; preds = %41, %2
  %14 = load i32, ptr %6, align 4
  %15 = load i32, ptr %7, align 4
  %16 = icmp ne i32 %14, %15
  br i1 %16, label %17, label %44

17:                                               ; preds = %13
  %18 = call noundef ptr @_ZNK4llvm5SMLoc10getPointerEv(ptr noundef nonnull align 8 dereferenceable(8) %4)
  %19 = getelementptr inbounds nuw %"class.llvm::SourceMgr", ptr %9, i32 0, i32 0
  %20 = load i32, ptr %6, align 4
  %21 = zext i32 %20 to i64
  %22 = call noundef nonnull align 8 dereferenceable(24) ptr @_ZNKSt6vectorIN4llvm9SourceMgr9SrcBufferESaIS2_EEixEm(ptr noundef nonnull align 8 dereferenceable(24) %19, i64 noundef %21) #11
  %23 = getelementptr inbounds nuw %"struct.llvm::SourceMgr::SrcBuffer", ptr %22, i32 0, i32 0
  %24 = call noundef ptr @_ZNKSt10unique_ptrIN4llvm12MemoryBufferESt14default_deleteIS1_EEptEv(ptr noundef nonnull align 8 dereferenceable(8) %23) #11
  %25 = call noundef ptr @_ZNK4llvm12MemoryBuffer14getBufferStartEv(ptr noundef nonnull align 8 dereferenceable(24) %24)
  %26 = icmp uge ptr %18, %25
  br i1 %26, label %27, label %40

27:                                               ; preds = %17
  %28 = call noundef ptr @_ZNK4llvm5SMLoc10getPointerEv(ptr noundef nonnull align 8 dereferenceable(8) %4)
  %29 = getelementptr inbounds nuw %"class.llvm::SourceMgr", ptr %9, i32 0, i32 0
  %30 = load i32, ptr %6, align 4
  %31 = zext i32 %30 to i64
  %32 = call noundef nonnull align 8 dereferenceable(24) ptr @_ZNKSt6vectorIN4llvm9SourceMgr9SrcBufferESaIS2_EEixEm(ptr noundef nonnull align 8 dereferenceable(24) %29, i64 noundef %31) #11
  %33 = getelementptr inbounds nuw %"struct.llvm::SourceMgr::SrcBuffer", ptr %32, i32 0, i32 0
  %34 = call noundef ptr @_ZNKSt10unique_ptrIN4llvm12MemoryBufferESt14default_deleteIS1_EEptEv(ptr noundef nonnull align 8 dereferenceable(8) %33) #11
  %35 = call noundef ptr @_ZNK4llvm12MemoryBuffer12getBufferEndEv(ptr noundef nonnull align 8 dereferenceable(24) %34)
  %36 = icmp ule ptr %28, %35
  br i1 %36, label %37, label %40

37:                                               ; preds = %27
  %38 = load i32, ptr %6, align 4
  %39 = add i32 %38, 1
  store i32 %39, ptr %3, align 4
  br label %45

40:                                               ; preds = %27, %17
  br label %41

41:                                               ; preds = %40
  %42 = load i32, ptr %6, align 4
  %43 = add i32 %42, 1
  store i32 %43, ptr %6, align 4
  br label %13, !llvm.loop !6

44:                                               ; preds = %13
  store i32 0, ptr %3, align 4
  br label %45

45:                                               ; preds = %44, %37
  %46 = load i32, ptr %3, align 4
  ret i32 %46
}