; Function Attrs: mustprogress nofree norecurse nosync nounwind willreturn memory(read, inaccessiblemem: none) uwtable
define dso_local noundef i32 @_ZNK4llvm9SourceMgr23FindBufferContainingLocENS_5SMLocE(ptr noundef nonnull readonly align 8 captures(none) dereferenceable(64) %0, ptr readnone %1) local_unnamed_addr #4 align 2 {
  %3 = getelementptr inbounds nuw i8, ptr %0, i64 8
  %4 = load ptr, ptr %3, align 8
  %5 = load ptr, ptr %0, align 8
  %6 = ptrtoint ptr %4 to i64
  %7 = ptrtoint ptr %5 to i64
  %8 = sub i64 %6, %7
  %9 = sdiv exact i64 %8, 24
  %10 = and i64 %9, 4294967295
  %.not12 = icmp eq i64 %10, 0
  br i1 %.not12, label %.loopexit, label %.lr.ph.preheader

.lr.ph.preheader:                                 ; preds = %2
  %11 = and i64 %9, 4294967295
  br label %.lr.ph

.lr.ph:                                           ; preds = %.lr.ph.preheader, %22
  %indvars.iv = phi i64 [ 0, %.lr.ph.preheader ], [ %indvars.iv.next, %22 ]
  %12 = getelementptr inbounds nuw %"struct.llvm::SourceMgr::SrcBuffer", ptr %5, i64 %indvars.iv
  %13 = load ptr, ptr %12, align 8
  %14 = getelementptr inbounds nuw i8, ptr %13, i64 8
  %15 = load ptr, ptr %14, align 8
  %.not8 = icmp ult ptr %1, %15
  br i1 %.not8, label %22, label %16

16:                                               ; preds = %.lr.ph
  %17 = getelementptr inbounds nuw i8, ptr %13, i64 16
  %18 = load ptr, ptr %17, align 8
  %.not9 = icmp ugt ptr %1, %18
  br i1 %.not9, label %22, label %19

19:                                               ; preds = %16
  %20 = trunc nuw i64 %indvars.iv to i32
  %21 = add i32 %20, 1
  br label %.loopexit

22:                                               ; preds = %.lr.ph, %16
  %indvars.iv.next = add nuw nsw i64 %indvars.iv, 1
  %.not = icmp eq i64 %indvars.iv.next, %11
  br i1 %.not, label %.loopexit, label %.lr.ph, !llvm.loop !9

.loopexit:                                        ; preds = %22, %2, %19
  %.0 = phi i32 [ %21, %19 ], [ 0, %2 ], [ 0, %22 ]
  ret i32 %.0
}